target datalayout = "e-m:e-p270:32:32-p271:32:32-p272:64:64-i64:64-i128:128-f80:128-n8:16:32:64-S128"
target triple = "x86_64-pc-linux-gnu"

%struct._packet_info = type { ptr, ptr, i32, i32, %struct.nstime_t, %struct.nstime_t, %struct.nstime_t, i8, ptr, ptr, ptr, ptr, %struct._address, %struct._address, %struct._address, %struct._address, %struct._address, %struct._address, i32, ptr, i8, [3 x i8], %struct.anon, i32, i32, i32, i32, ptr, i8, ptr, ptr, i16, i16, i32, i32, i16, i32, i32, ptr, ptr, ptr, i8, i8, i16, i16, i16, i32, i16, i16, ptr, ptr, ptr, ptr, ptr, i32, i32 }
%struct.nstime_t = type { i64, i32 }
%struct._address = type { i32, i32, ptr, ptr }
%struct.anon = type { i8, [3 x i8] }

@ett_u3v_stream_trailer = internal global i32 0, align 4
@hf_u3v_stream_prefix = internal global i32 0, align 4
@hf_u3v_stream_reserved = internal global i32 0, align 4
@hf_u3v_stream_trailer_size = internal global i32 0, align 4
@hf_u3v_stream_block_id = internal global i32 0, align 4
@hf_u3v_stream_size_y = internal global i32 0, align 4
@hf_u3v_stream_chunk_layout_id = internal global i32 0, align 4
@hf_u3v_stream_valid_payload_size = internal global i32 0, align 4
@hf_u3v_stream_status = internal global i32 0, align 4
@hf_u3v_stream_trailer = internal global i32 0, align 4
@.str.688 = private unnamed_addr constant [32 x i8] c"Stream Trailer [ Block ID: %lu]\00", align 1

; Function Attrs: null_pointer_is_valid sspstrong uwtable
define internal void @dissect_u3v_stream_trailer(ptr noundef %0, ptr noundef %1, ptr noundef %2, ptr noundef %3) #0 {
  %5 = alloca ptr, align 8
  %6 = alloca ptr, align 8
  %7 = alloca ptr, align 8
  %8 = alloca ptr, align 8
  %9 = alloca i32, align 4
  %10 = alloca i64, align 8
  %11 = alloca ptr, align 8
  store ptr %0, ptr %5, align 8
  store ptr %1, ptr %6, align 8
  store ptr %2, ptr %7, align 8
  store ptr %3, ptr %8, align 8
  call void @llvm.lifetime.start.p0(i64 4, ptr %9) #6
  store i32 0, ptr %9, align 4
  call void @llvm.lifetime.start.p0(i64 8, ptr %10) #6
  call void @llvm.lifetime.start.p0(i64 8, ptr %11) #6
  store ptr null, ptr %11, align 8
  %12 = load ptr, ptr %5, align 8
  %13 = load i32, ptr @hf_u3v_stream_trailer, align 4
  %14 = load ptr, ptr %6, align 8
  %15 = call ptr @proto_tree_add_item(ptr noundef %12, i32 noundef %13, ptr noundef %14, i32 noundef 0, i32 noundef -1, i32 noundef 0)
  store ptr %15, ptr %11, align 8
  %16 = load ptr, ptr %11, align 8
  %17 = load i32, ptr @ett_u3v_stream_trailer, align 4
  %18 = call ptr @proto_item_add_subtree(ptr noundef %16, i32 noundef %17)
  store ptr %18, ptr %5, align 8
  %19 = load ptr, ptr %5, align 8
  %20 = load i32, ptr @hf_u3v_stream_prefix, align 4
  %21 = load ptr, ptr %6, align 8
  %22 = load i32, ptr %9, align 4
  %23 = call ptr @proto_tree_add_item(ptr noundef %19, i32 noundef %20, ptr noundef %21, i32 noundef %22, i32 noundef 4, i32 noundef -2147483648)
  %24 = load i32, ptr %9, align 4
  %25 = add i32 %24, 4
  store i32 %25, ptr %9, align 4
  %26 = load ptr, ptr %5, align 8
  %27 = load i32, ptr @hf_u3v_stream_reserved, align 4
  %28 = load ptr, ptr %6, align 8
  %29 = load i32, ptr %9, align 4
  %30 = call ptr @proto_tree_add_item(ptr noundef %26, i32 noundef %27, ptr noundef %28, i32 noundef %29, i32 noundef 2, i32 noundef 0)
  %31 = load i32, ptr %9, align 4
  %32 = add i32 %31, 2
  store i32 %32, ptr %9, align 4
  %33 = load ptr, ptr %5, align 8
  %34 = load i32, ptr @hf_u3v_stream_trailer_size, align 4
  %35 = load ptr, ptr %6, align 8
  %36 = load i32, ptr %9, align 4
  %37 = call ptr @proto_tree_add_item(ptr noundef %33, i32 noundef %34, ptr noundef %35, i32 noundef %36, i32 noundef 2, i32 noundef -2147483648)
  %38 = load i32, ptr %9, align 4
  %39 = add i32 %38, 2
  store i32 %39, ptr %9, align 4
  %40 = load ptr, ptr %6, align 8
  %41 = load i32, ptr %9, align 4
  %42 = call i64 @tvb_get_letoh64(ptr noundef %40, i32 noundef %41)
  store i64 %42, ptr %10, align 8
  %43 = load ptr, ptr %5, align 8
  %44 = load i32, ptr @hf_u3v_stream_block_id, align 4
  %45 = load ptr, ptr %6, align 8
  %46 = load i32, ptr %9, align 4
  %47 = call ptr @proto_tree_add_item(ptr noundef %43, i32 noundef %44, ptr noundef %45, i32 noundef %46, i32 noundef 8, i32 noundef -2147483648)
  %48 = load i32, ptr %9, align 4
  %49 = add i32 %48, 8
  store i32 %49, ptr %9, align 4
  %50 = load ptr, ptr %5, align 8
  %51 = load i32, ptr @hf_u3v_stream_status, align 4
  %52 = load ptr, ptr %6, align 8
  %53 = load i32, ptr %9, align 4
  %54 = call ptr @proto_tree_add_item(ptr noundef %50, i32 noundef %51, ptr noundef %52, i32 noundef %53, i32 noundef 2, i32 noundef -2147483648)
  %55 = load i32, ptr %9, align 4
  %56 = add i32 %55, 2
  store i32 %56, ptr %9, align 4
  %57 = load ptr, ptr %5, align 8
  %58 = load i32, ptr @hf_u3v_stream_reserved, align 4
  %59 = load ptr, ptr %6, align 8
  %60 = load i32, ptr %9, align 4
  %61 = call ptr @proto_tree_add_item(ptr noundef %57, i32 noundef %58, ptr noundef %59, i32 noundef %60, i32 noundef 2, i32 noundef 0)
  %62 = load i32, ptr %9, align 4
  %63 = add i32 %62, 2
  store i32 %63, ptr %9, align 4
  %64 = load ptr, ptr %5, align 8
  %65 = load i32, ptr @hf_u3v_stream_valid_payload_size, align 4
  %66 = load ptr, ptr %6, align 8
  %67 = load i32, ptr %9, align 4
  %68 = call ptr @proto_tree_add_item(ptr noundef %64, i32 noundef %65, ptr noundef %66, i32 noundef %67, i32 noundef 8, i32 noundef -2147483648)
  %69 = load i32, ptr %9, align 4
  %70 = add i32 %69, 8
  store i32 %70, ptr %9, align 4
  %71 = load ptr, ptr %7, align 8
  %72 = getelementptr inbounds nuw %struct._packet_info, ptr %71, i32 0, i32 1
  %73 = load ptr, ptr %72, align 8
  %74 = load i64, ptr %10, align 8
  call void (ptr, i32, ptr, ...) @col_append_fstr(ptr noundef %73, i32 noundef 25, ptr noundef @.str.688, i64 noundef %74)
  %75 = load ptr, ptr %6, align 8
  %76 = load i32, ptr %9, align 4
  %77 = call i32 @tvb_captured_length_remaining(ptr noundef %75, i32 noundef %76)
  %78 = icmp sge i32 %77, 4
  br i1 %78, label %79, label %87

79:                                               ; preds = %4
  %80 = load ptr, ptr %5, align 8
  %81 = load i32, ptr @hf_u3v_stream_size_y, align 4
  %82 = load ptr, ptr %6, align 8
  %83 = load i32, ptr %9, align 4
  %84 = call ptr @proto_tree_add_item(ptr noundef %80, i32 noundef %81, ptr noundef %82, i32 noundef %83, i32 noundef 4, i32 noundef -2147483648)
  %85 = load i32, ptr %9, align 4
  %86 = add i32 %85, 4
  store i32 %86, ptr %9, align 4
  br label %87

87:                                               ; preds = %79, %4
  %88 = load ptr, ptr %6, align 8
  %89 = load i32, ptr %9, align 4
  %90 = call i32 @tvb_captured_length_remaining(ptr noundef %88, i32 noundef %89)
  %91 = icmp sge i32 %90, 4
  br i1 %91, label %92, label %98

92:                                               ; preds = %87
  %93 = load ptr, ptr %5, align 8
  %94 = load i32, ptr @hf_u3v_stream_chunk_layout_id, align 4
  %95 = load ptr, ptr %6, align 8
  %96 = load i32, ptr %9, align 4
  %97 = call ptr @proto_tree_add_item(ptr noundef %93, i32 noundef %94, ptr noundef %95, i32 noundef %96, i32 noundef 4, i32 noundef -2147483648)
  br label %98

98:                                               ; preds = %92, %87
  call void @llvm.lifetime.end.p0(i64 8, ptr %11) #6
  call void @llvm.lifetime.end.p0(i64 8, ptr %10) #6
  call void @llvm.lifetime.end.p0(i64 4, ptr %9) #6
  ret void
}