; Function Attrs: null_pointer_is_valid sspstrong uwtable
define internal fastcc void @dissect_u3v_stream_trailer(ptr noundef %0, ptr noundef %1, ptr noundef readonly captures(none) %2) unnamed_addr #0 {
  %4 = load i32, ptr @hf_u3v_stream_trailer, align 4
  %5 = tail call ptr @proto_tree_add_item(ptr noundef %0, i32 noundef %4, ptr noundef %1, i32 noundef 0, i32 noundef -1, i32 noundef 0)
  %6 = load i32, ptr @ett_u3v_stream_trailer, align 4
  %7 = tail call ptr @proto_item_add_subtree(ptr noundef %5, i32 noundef %6)
  %8 = load i32, ptr @hf_u3v_stream_prefix, align 4
  %9 = tail call ptr @proto_tree_add_item(ptr noundef %7, i32 noundef %8, ptr noundef %1, i32 noundef 0, i32 noundef 4, i32 noundef -2147483648)
  %10 = load i32, ptr @hf_u3v_stream_reserved, align 4
  %11 = tail call ptr @proto_tree_add_item(ptr noundef %7, i32 noundef %10, ptr noundef %1, i32 noundef 4, i32 noundef 2, i32 noundef 0)
  %12 = load i32, ptr @hf_u3v_stream_trailer_size, align 4
  %13 = tail call ptr @proto_tree_add_item(ptr noundef %7, i32 noundef %12, ptr noundef %1, i32 noundef 6, i32 noundef 2, i32 noundef -2147483648)
  %14 = tail call i64 @tvb_get_letoh64(ptr noundef %1, i32 noundef 8)
  %15 = load i32, ptr @hf_u3v_stream_block_id, align 4
  %16 = tail call ptr @proto_tree_add_item(ptr noundef %7, i32 noundef %15, ptr noundef %1, i32 noundef 8, i32 noundef 8, i32 noundef -2147483648)
  %17 = load i32, ptr @hf_u3v_stream_status, align 4
  %18 = tail call ptr @proto_tree_add_item(ptr noundef %7, i32 noundef %17, ptr noundef %1, i32 noundef 16, i32 noundef 2, i32 noundef -2147483648)
  %19 = load i32, ptr @hf_u3v_stream_reserved, align 4
  %20 = tail call ptr @proto_tree_add_item(ptr noundef %7, i32 noundef %19, ptr noundef %1, i32 noundef 18, i32 noundef 2, i32 noundef 0)
  %21 = load i32, ptr @hf_u3v_stream_valid_payload_size, align 4
  %22 = tail call ptr @proto_tree_add_item(ptr noundef %7, i32 noundef %21, ptr noundef %1, i32 noundef 20, i32 noundef 8, i32 noundef -2147483648)
  %23 = getelementptr inbounds nuw i8, ptr %2, i64 8
  %24 = load ptr, ptr %23, align 8
  tail call void (ptr, i32, ptr, ...) @col_append_fstr(ptr noundef %24, i32 noundef 25, ptr noundef nonnull @.str.688, i64 noundef %14)
  %25 = tail call i32 @tvb_captured_length_remaining(ptr noundef %1, i32 noundef 28)
  %26 = icmp sgt i32 %25, 3
  br i1 %26, label %27, label %30

27:                                               ; preds = %3
  %28 = load i32, ptr @hf_u3v_stream_size_y, align 4
  %29 = tail call ptr @proto_tree_add_item(ptr noundef %7, i32 noundef %28, ptr noundef %1, i32 noundef 28, i32 noundef 4, i32 noundef -2147483648)
  br label %30

30:                                               ; preds = %27, %3
  %.0 = phi i32 [ 32, %27 ], [ 28, %3 ]
  %31 = tail call i32 @tvb_captured_length_remaining(ptr noundef %1, i32 noundef %.0)
  %32 = icmp sgt i32 %31, 3
  br i1 %32, label %33, label %36

33:                                               ; preds = %30
  %34 = load i32, ptr @hf_u3v_stream_chunk_layout_id, align 4
  %35 = tail call ptr @proto_tree_add_item(ptr noundef %7, i32 noundef %34, ptr noundef %1, i32 noundef %.0, i32 noundef 4, i32 noundef -2147483648)
  br label %36

36:                                               ; preds = %33, %30
  ret void
}